target datalayout = "e-m:e-p270:32:32-p271:32:32-p272:64:64-i64:64-i128:128-f80:128-n8:16:32:64-S128"
target triple = "x86_64-pc-linux-gnu"

%"class.icu_77::Package" = type <{ [64 x i8], [64 x i8], ptr, [1024 x i8], i32, i32, i8, i8, i8, i8, i32, i32, [4 x i8], ptr, i32, i32, [100000 x i8], [100000 x i8], i32, [4 x i8], ptr, ptr, i32, i32, i32, i8, [3 x i8] }>
%"struct.icu_77::Item" = type { ptr, ptr, i32, i8, i8 }

; Function Attrs: mustprogress nounwind uwtable
define noundef i32 @_ZNK6icu_777Package8findItemEPKci(ptr noundef nonnull align 8 dereferenceable(201237) %0, ptr noundef %1, i32 noundef %2) #3 align 2 {
  %4 = alloca i32, align 4
  %5 = alloca ptr, align 8
  %6 = alloca ptr, align 8
  %7 = alloca i32, align 4
  %8 = alloca i32, align 4
  %9 = alloca i32, align 4
  %10 = alloca i32, align 4
  %11 = alloca i32, align 4
  %12 = alloca i32, align 4
  store ptr %0, ptr %5, align 8, !tbaa !26
  store ptr %1, ptr %6, align 8, !tbaa !3
  store i32 %2, ptr %7, align 4, !tbaa !8
  %13 = load ptr, ptr %5, align 8
  call void @llvm.lifetime.start.p0(i64 4, ptr %8) #13
  call void @llvm.lifetime.start.p0(i64 4, ptr %9) #13
  call void @llvm.lifetime.start.p0(i64 4, ptr %10) #13
  call void @llvm.lifetime.start.p0(i64 4, ptr %11) #13
  store i32 0, ptr %9, align 4, !tbaa !8
  %14 = getelementptr inbounds nuw %"class.icu_77::Package", ptr %13, i32 0, i32 10
  %15 = load i32, ptr %14, align 4, !tbaa !37
  store i32 %15, ptr %10, align 4, !tbaa !8
  br label %16

16:                                               ; preds = %90, %3
  %17 = load i32, ptr %9, align 4, !tbaa !8
  %18 = load i32, ptr %10, align 4, !tbaa !8
  %19 = icmp slt i32 %17, %18
  br i1 %19, label %20, label %91

20:                                               ; preds = %16
  %21 = load i32, ptr %9, align 4, !tbaa !8
  %22 = load i32, ptr %10, align 4, !tbaa !8
  %23 = add nsw i32 %21, %22
  %24 = sdiv i32 %23, 2
  store i32 %24, ptr %8, align 4, !tbaa !8
  %25 = load i32, ptr %7, align 4, !tbaa !8
  %26 = icmp sge i32 %25, 0
  br i1 %26, label %27, label %39

27:                                               ; preds = %20
  %28 = load ptr, ptr %6, align 8, !tbaa !3
  %29 = getelementptr inbounds nuw %"class.icu_77::Package", ptr %13, i32 0, i32 13
  %30 = load ptr, ptr %29, align 8, !tbaa !39
  %31 = load i32, ptr %8, align 4, !tbaa !8
  %32 = sext i32 %31 to i64
  %33 = getelementptr inbounds %"struct.icu_77::Item", ptr %30, i64 %32
  %34 = getelementptr inbounds nuw %"struct.icu_77::Item", ptr %33, i32 0, i32 0
  %35 = load ptr, ptr %34, align 8, !tbaa !68
  %36 = load i32, ptr %7, align 4, !tbaa !8
  %37 = sext i32 %36 to i64
  %38 = call i32 @strncmp(ptr noundef %28, ptr noundef %35, i64 noundef %37) #15
  store i32 %38, ptr %11, align 4, !tbaa !8
  br label %49

39:                                               ; preds = %20
  %40 = load ptr, ptr %6, align 8, !tbaa !3
  %41 = getelementptr inbounds nuw %"class.icu_77::Package", ptr %13, i32 0, i32 13
  %42 = load ptr, ptr %41, align 8, !tbaa !39
  %43 = load i32, ptr %8, align 4, !tbaa !8
  %44 = sext i32 %43 to i64
  %45 = getelementptr inbounds %"struct.icu_77::Item", ptr %42, i64 %44
  %46 = getelementptr inbounds nuw %"struct.icu_77::Item", ptr %45, i32 0, i32 0
  %47 = load ptr, ptr %46, align 8, !tbaa !68
  %48 = call i32 @strcmp(ptr noundef %40, ptr noundef %47) #15
  store i32 %48, ptr %11, align 4, !tbaa !8
  br label %49

49:                                               ; preds = %39, %27
  %50 = load i32, ptr %11, align 4, !tbaa !8
  %51 = icmp eq i32 %50, 0
  br i1 %51, label %52, label %81

52:                                               ; preds = %49
  %53 = load i32, ptr %7, align 4, !tbaa !8
  %54 = icmp sge i32 %53, 0
  br i1 %54, label %55, label %79

55:                                               ; preds = %52
  br label %56

56:                                               ; preds = %75, %55
  %57 = load i32, ptr %8, align 4, !tbaa !8
  %58 = icmp sgt i32 %57, 0
  br i1 %58, label %59, label %73

59:                                               ; preds = %56
  %60 = load ptr, ptr %6, align 8, !tbaa !3
  %61 = getelementptr inbounds nuw %"class.icu_77::Package", ptr %13, i32 0, i32 13
  %62 = load ptr, ptr %61, align 8, !tbaa !39
  %63 = load i32, ptr %8, align 4, !tbaa !8
  %64 = sub nsw i32 %63, 1
  %65 = sext i32 %64 to i64
  %66 = getelementptr inbounds %"struct.icu_77::Item", ptr %62, i64 %65
  %67 = getelementptr inbounds nuw %"struct.icu_77::Item", ptr %66, i32 0, i32 0
  %68 = load ptr, ptr %67, align 8, !tbaa !68
  %69 = load i32, ptr %7, align 4, !tbaa !8
  %70 = sext i32 %69 to i64
  %71 = call i32 @strncmp(ptr noundef %60, ptr noundef %68, i64 noundef %70) #15
  %72 = icmp eq i32 0, %71
  br label %73

73:                                               ; preds = %59, %56
  %74 = phi i1 [ false, %56 ], [ %72, %59 ]
  br i1 %74, label %75, label %78

75:                                               ; preds = %73
  %76 = load i32, ptr %8, align 4, !tbaa !8
  %77 = add nsw i32 %76, -1
  store i32 %77, ptr %8, align 4, !tbaa !8
  br label %56, !llvm.loop !82

78:                                               ; preds = %73
  br label %79

79:                                               ; preds = %78, %52
  %80 = load i32, ptr %8, align 4, !tbaa !8
  store i32 %80, ptr %4, align 4
  store i32 1, ptr %12, align 4
  br label %94

81:                                               ; preds = %49
  %82 = load i32, ptr %11, align 4, !tbaa !8
  %83 = icmp slt i32 %82, 0
  br i1 %83, label %84, label %86

84:                                               ; preds = %81
  %85 = load i32, ptr %8, align 4, !tbaa !8
  store i32 %85, ptr %10, align 4, !tbaa !8
  br label %89

86:                                               ; preds = %81
  %87 = load i32, ptr %8, align 4, !tbaa !8
  %88 = add nsw i32 %87, 1
  store i32 %88, ptr %9, align 4, !tbaa !8
  br label %89

89:                                               ; preds = %86, %84
  br label %90

90:                                               ; preds = %89
  br label %16, !llvm.loop !83

91:                                               ; preds = %16
  %92 = load i32, ptr %9, align 4, !tbaa !8
  %93 = xor i32 %92, -1
  store i32 %93, ptr %4, align 4
  store i32 1, ptr %12, align 4
  br label %94

94:                                               ; preds = %91, %79
  call void @llvm.lifetime.end.p0(i64 4, ptr %11) #13
  call void @llvm.lifetime.end.p0(i64 4, ptr %10) #13
  call void @llvm.lifetime.end.p0(i64 4, ptr %9) #13
  call void @llvm.lifetime.end.p0(i64 4, ptr %8) #13
  %95 = load i32, ptr %4, align 4
  ret i32 %95
}