; Function Attrs: mustprogress nofree nounwind willreturn memory(read, inaccessiblemem: none) uwtable
define noundef range(i32 -1073741825, 1073741824) i32 @_ZNK6icu_777Package8findItemEPKci(ptr noundef nonnull readonly align 8 captures(none) dereferenceable(201237) %0, ptr noundef readonly captures(none) %1, i32 noundef %2) local_unnamed_addr #16 align 2 {
  %4 = getelementptr inbounds nuw i8, ptr %0, i64 1172
  %5 = load i32, ptr %4, align 4, !tbaa !29
  %6 = icmp sgt i32 %5, 0
  br i1 %6, label %.lr.ph, label %._crit_edge

.lr.ph:                                           ; preds = %3
  %7 = icmp sgt i32 %2, -1
  %8 = getelementptr inbounds nuw i8, ptr %0, i64 1184
  %9 = load ptr, ptr %8, align 8
  %10 = zext nneg i32 %2 to i64
  br i1 %7, label %.lr.ph.split.us, label %.lr.ph.split

.lr.ph.split.us:                                  ; preds = %.lr.ph, %18
  %.02539.us = phi i32 [ %.1.us, %18 ], [ %5, %.lr.ph ]
  %.02638.us = phi i32 [ %.127.us, %18 ], [ 0, %.lr.ph ]
  %11 = add nuw nsw i32 %.02539.us, %.02638.us
  %12 = lshr i32 %11, 1
  %13 = zext nneg i32 %12 to i64
  %14 = getelementptr inbounds nuw %"struct.icu_77::Item", ptr %9, i64 %13
  %15 = load ptr, ptr %14, align 8, !tbaa !54
  %16 = tail call i32 @strncmp(ptr noundef %1, ptr noundef %15, i64 noundef %10) #24
  %17 = icmp eq i32 %16, 0
  br i1 %17, label %.split.us, label %18

18:                                               ; preds = %.lr.ph.split.us
  %19 = icmp slt i32 %16, 0
  %20 = add nuw nsw i32 %12, 1
  %.127.us = select i1 %19, i32 %.02638.us, i32 %20
  %.1.us = select i1 %19, i32 %12, i32 %.02539.us
  %21 = icmp slt i32 %.127.us, %.1.us
  br i1 %21, label %.lr.ph.split.us, label %._crit_edge, !llvm.loop !68

.lr.ph.split:                                     ; preds = %.lr.ph, %36
  %.02539 = phi i32 [ %.1, %36 ], [ %5, %.lr.ph ]
  %.02638 = phi i32 [ %.127, %36 ], [ 0, %.lr.ph ]
  %22 = add nuw nsw i32 %.02539, %.02638
  %23 = lshr i32 %22, 1
  %24 = zext nneg i32 %23 to i64
  %25 = getelementptr inbounds nuw %"struct.icu_77::Item", ptr %9, i64 %24
  %26 = load ptr, ptr %25, align 8, !tbaa !54
  %27 = tail call i32 @strcmp(ptr noundef nonnull dereferenceable(1) %1, ptr noundef nonnull dereferenceable(1) %26) #24
  %28 = icmp eq i32 %27, 0
  br i1 %28, label %.split.us, label %36

.split.us:                                        ; preds = %.lr.ph.split, %.lr.ph.split.us
  %.us-phi = phi i32 [ %11, %.lr.ph.split.us ], [ %22, %.lr.ph.split ]
  %.us-phi40 = phi i32 [ %12, %.lr.ph.split.us ], [ %23, %.lr.ph.split ]
  %29 = icmp ugt i32 %.us-phi, 1
  %or.cond = and i1 %7, %29
  br i1 %or.cond, label %.preheader, label %.critedge

.preheader:                                       ; preds = %.split.us
  %invariant.gep = getelementptr i8, ptr %9, i64 -24
  %30 = zext nneg i32 %.us-phi40 to i64
  br label %31

31:                                               ; preds = %.preheader, %35
  %indvars.iv = phi i64 [ %30, %.preheader ], [ %indvars.iv.next, %35 ]
  %gep = getelementptr %"struct.icu_77::Item", ptr %invariant.gep, i64 %indvars.iv
  %32 = load ptr, ptr %gep, align 8, !tbaa !54
  %33 = tail call i32 @strncmp(ptr noundef %1, ptr noundef %32, i64 noundef %10) #24
  %34 = icmp eq i32 %33, 0
  br i1 %34, label %35, label %.critedge.loopexit.split.loop.exit

35:                                               ; preds = %31
  %indvars.iv.next = add nsw i64 %indvars.iv, -1
  %.old1 = icmp sgt i64 %indvars.iv, 1
  br i1 %.old1, label %31, label %.critedge

36:                                               ; preds = %.lr.ph.split
  %37 = icmp slt i32 %27, 0
  %38 = add nuw nsw i32 %23, 1
  %.127 = select i1 %37, i32 %.02638, i32 %38
  %.1 = select i1 %37, i32 %23, i32 %.02539
  %39 = icmp slt i32 %.127, %.1
  br i1 %39, label %.lr.ph.split, label %._crit_edge, !llvm.loop !68

._crit_edge:                                      ; preds = %36, %18, %3
  %.026.lcssa = phi i32 [ 0, %3 ], [ %.127.us, %18 ], [ %.127, %36 ]
  %40 = xor i32 %.026.lcssa, -1
  br label %.critedge

.critedge.loopexit.split.loop.exit:               ; preds = %31
  %41 = trunc nuw nsw i64 %indvars.iv to i32
  br label %.critedge

.critedge:                                        ; preds = %35, %.critedge.loopexit.split.loop.exit, %.split.us, %._crit_edge
  %.030 = phi i32 [ %40, %._crit_edge ], [ %.us-phi40, %.split.us ], [ %41, %.critedge.loopexit.split.loop.exit ], [ 0, %35 ]
  ret i32 %.030
}